target datalayout = "e-m:e-p270:32:32-p271:32:32-p272:64:64-i64:64-i128:128-f80:128-n8:16:32:64-S128"
target triple = "x86_64-pc-linux-gnu"

%struct._cms_curve_struct = type { ptr, i32, ptr, ptr, ptr, i32, ptr }
%struct.cmsCurveSegment = type { float, float, i32, [10 x double], i32, ptr }
%struct._cmsStageToneCurvesData = type { i32, ptr }

@__const.WriteSegmentedCurve.ParamsByType = private unnamed_addr constant [3 x i32] [i32 4, i32 5, i32 5], align 4

; Function Attrs: nounwind uwtable
define internal i32 @WriteSegmentedCurve(ptr noundef %0, ptr noundef %1) #0 {
  %3 = alloca i32, align 4
  %4 = alloca ptr, align 8
  %5 = alloca ptr, align 8
  %6 = alloca i32, align 4
  %7 = alloca i32, align 4
  %8 = alloca ptr, align 8
  %9 = alloca i32, align 4
  %10 = alloca ptr, align 8
  %11 = alloca i32, align 4
  %12 = alloca [3 x i32], align 4
  store ptr %0, ptr %4, align 8
  store ptr %1, ptr %5, align 8
  %13 = load ptr, ptr %5, align 8
  %14 = getelementptr inbounds %struct._cms_curve_struct, ptr %13, i32 0, i32 2
  %15 = load ptr, ptr %14, align 8
  store ptr %15, ptr %8, align 8
  %16 = load ptr, ptr %5, align 8
  %17 = getelementptr inbounds %struct._cms_curve_struct, ptr %16, i32 0, i32 1
  %18 = load i32, ptr %17, align 8
  store i32 %18, ptr %9, align 4
  %19 = load ptr, ptr %4, align 8
  %20 = call i32 @_cmsWriteUInt32Number(ptr noundef %19, i32 noundef 1668641382)
  %21 = icmp ne i32 %20, 0
  br i1 %21, label %23, label %22

22:                                               ; preds = %2
  br label %188

23:                                               ; preds = %2
  %24 = load ptr, ptr %4, align 8
  %25 = call i32 @_cmsWriteUInt32Number(ptr noundef %24, i32 noundef 0)
  %26 = icmp ne i32 %25, 0
  br i1 %26, label %28, label %27

27:                                               ; preds = %23
  br label %188

28:                                               ; preds = %23
  %29 = load ptr, ptr %4, align 8
  %30 = load i32, ptr %9, align 4
  %31 = trunc i32 %30 to i16
  %32 = call i32 @_cmsWriteUInt16Number(ptr noundef %29, i16 noundef zeroext %31)
  %33 = icmp ne i32 %32, 0
  br i1 %33, label %35, label %34

34:                                               ; preds = %28
  br label %188

35:                                               ; preds = %28
  %36 = load ptr, ptr %4, align 8
  %37 = call i32 @_cmsWriteUInt16Number(ptr noundef %36, i16 noundef zeroext 0)
  %38 = icmp ne i32 %37, 0
  br i1 %38, label %40, label %39

39:                                               ; preds = %35
  br label %188

40:                                               ; preds = %35
  store i32 0, ptr %6, align 4
  br label %41

41:                                               ; preds = %58, %40
  %42 = load i32, ptr %6, align 4
  %43 = load i32, ptr %9, align 4
  %44 = sub i32 %43, 1
  %45 = icmp ult i32 %42, %44
  br i1 %45, label %46, label %61

46:                                               ; preds = %41
  %47 = load ptr, ptr %4, align 8
  %48 = load ptr, ptr %8, align 8
  %49 = load i32, ptr %6, align 4
  %50 = zext i32 %49 to i64
  %51 = getelementptr inbounds %struct.cmsCurveSegment, ptr %48, i64 %50
  %52 = getelementptr inbounds %struct.cmsCurveSegment, ptr %51, i32 0, i32 1
  %53 = load float, ptr %52, align 4
  %54 = call i32 @_cmsWriteFloat32Number(ptr noundef %47, float noundef %53)
  %55 = icmp ne i32 %54, 0
  br i1 %55, label %57, label %56

56:                                               ; preds = %46
  br label %188

57:                                               ; preds = %46
  br label %58

58:                                               ; preds = %57
  %59 = load i32, ptr %6, align 4
  %60 = add i32 %59, 1
  store i32 %60, ptr %6, align 4
  br label %41, !llvm.loop !102

61:                                               ; preds = %41
  store i32 0, ptr %6, align 4
  br label %62

62:                                               ; preds = %184, %61
  %63 = load i32, ptr %6, align 4
  %64 = load ptr, ptr %5, align 8
  %65 = getelementptr inbounds %struct._cms_curve_struct, ptr %64, i32 0, i32 1
  %66 = load i32, ptr %65, align 8
  %67 = icmp ult i32 %63, %66
  br i1 %67, label %68, label %187

68:                                               ; preds = %62
  %69 = load ptr, ptr %8, align 8
  %70 = load i32, ptr %6, align 4
  %71 = zext i32 %70 to i64
  %72 = getelementptr inbounds %struct.cmsCurveSegment, ptr %69, i64 %71
  store ptr %72, ptr %10, align 8
  %73 = load ptr, ptr %10, align 8
  %74 = getelementptr inbounds %struct.cmsCurveSegment, ptr %73, i32 0, i32 2
  %75 = load i32, ptr %74, align 8
  %76 = icmp eq i32 %75, 0
  br i1 %76, label %77, label %125

77:                                               ; preds = %68
  %78 = load ptr, ptr %4, align 8
  %79 = call i32 @_cmsWriteUInt32Number(ptr noundef %78, i32 noundef 1935764838)
  %80 = icmp ne i32 %79, 0
  br i1 %80, label %82, label %81

81:                                               ; preds = %77
  br label %188

82:                                               ; preds = %77
  %83 = load ptr, ptr %4, align 8
  %84 = call i32 @_cmsWriteUInt32Number(ptr noundef %83, i32 noundef 0)
  %85 = icmp ne i32 %84, 0
  br i1 %85, label %87, label %86

86:                                               ; preds = %82
  br label %188

87:                                               ; preds = %82
  %88 = load ptr, ptr %4, align 8
  %89 = load ptr, ptr %10, align 8
  %90 = getelementptr inbounds %struct.cmsCurveSegment, ptr %89, i32 0, i32 4
  %91 = load i32, ptr %90, align 8
  %92 = sub i32 %91, 1
  %93 = call i32 @_cmsWriteUInt32Number(ptr noundef %88, i32 noundef %92)
  %94 = icmp ne i32 %93, 0
  br i1 %94, label %96, label %95

95:                                               ; preds = %87
  br label %188

96:                                               ; preds = %87
  store i32 1, ptr %7, align 4
  br label %97

97:                                               ; preds = %121, %96
  %98 = load i32, ptr %7, align 4
  %99 = load ptr, ptr %5, align 8
  %100 = getelementptr inbounds %struct._cms_curve_struct, ptr %99, i32 0, i32 2
  %101 = load ptr, ptr %100, align 8
  %102 = load i32, ptr %6, align 4
  %103 = zext i32 %102 to i64
  %104 = getelementptr inbounds %struct.cmsCurveSegment, ptr %101, i64 %103
  %105 = getelementptr inbounds %struct.cmsCurveSegment, ptr %104, i32 0, i32 4
  %106 = load i32, ptr %105, align 8
  %107 = icmp ult i32 %98, %106
  br i1 %107, label %108, label %124

108:                                              ; preds = %97
  %109 = load ptr, ptr %4, align 8
  %110 = load ptr, ptr %10, align 8
  %111 = getelementptr inbounds %struct.cmsCurveSegment, ptr %110, i32 0, i32 5
  %112 = load ptr, ptr %111, align 8
  %113 = load i32, ptr %7, align 4
  %114 = zext i32 %113 to i64
  %115 = getelementptr inbounds float, ptr %112, i64 %114
  %116 = load float, ptr %115, align 4
  %117 = call i32 @_cmsWriteFloat32Number(ptr noundef %109, float noundef %116)
  %118 = icmp ne i32 %117, 0
  br i1 %118, label %120, label %119

119:                                              ; preds = %108
  br label %188

120:                                              ; preds = %108
  br label %121

121:                                              ; preds = %120
  %122 = load i32, ptr %7, align 4
  %123 = add i32 %122, 1
  store i32 %123, ptr %7, align 4
  br label %97, !llvm.loop !103

124:                                              ; preds = %97
  br label %183

125:                                              ; preds = %68
  call void @llvm.memcpy.p0.p0.i64(ptr align 4 %12, ptr align 4 @__const.WriteSegmentedCurve.ParamsByType, i64 12, i1 false)
  %126 = load ptr, ptr %4, align 8
  %127 = call i32 @_cmsWriteUInt32Number(ptr noundef %126, i32 noundef 1885434470)
  %128 = icmp ne i32 %127, 0
  br i1 %128, label %130, label %129

129:                                              ; preds = %125
  br label %188

130:                                              ; preds = %125
  %131 = load ptr, ptr %4, align 8
  %132 = call i32 @_cmsWriteUInt32Number(ptr noundef %131, i32 noundef 0)
  %133 = icmp ne i32 %132, 0
  br i1 %133, label %135, label %134

134:                                              ; preds = %130
  br label %188

135:                                              ; preds = %130
  %136 = load ptr, ptr %10, align 8
  %137 = getelementptr inbounds %struct.cmsCurveSegment, ptr %136, i32 0, i32 2
  %138 = load i32, ptr %137, align 8
  %139 = sub nsw i32 %138, 6
  store i32 %139, ptr %11, align 4
  %140 = load i32, ptr %11, align 4
  %141 = icmp sgt i32 %140, 2
  br i1 %141, label %145, label %142

142:                                              ; preds = %135
  %143 = load i32, ptr %11, align 4
  %144 = icmp slt i32 %143, 0
  br i1 %144, label %145, label %146

145:                                              ; preds = %142, %135
  br label %188

146:                                              ; preds = %142
  %147 = load ptr, ptr %4, align 8
  %148 = load i32, ptr %11, align 4
  %149 = trunc i32 %148 to i16
  %150 = call i32 @_cmsWriteUInt16Number(ptr noundef %147, i16 noundef zeroext %149)
  %151 = icmp ne i32 %150, 0
  br i1 %151, label %153, label %152

152:                                              ; preds = %146
  br label %188

153:                                              ; preds = %146
  %154 = load ptr, ptr %4, align 8
  %155 = call i32 @_cmsWriteUInt16Number(ptr noundef %154, i16 noundef zeroext 0)
  %156 = icmp ne i32 %155, 0
  br i1 %156, label %158, label %157

157:                                              ; preds = %153
  br label %188

158:                                              ; preds = %153
  store i32 0, ptr %7, align 4
  br label %159

159:                                              ; preds = %179, %158
  %160 = load i32, ptr %7, align 4
  %161 = load i32, ptr %11, align 4
  %162 = sext i32 %161 to i64
  %163 = getelementptr inbounds [3 x i32], ptr %12, i64 0, i64 %162
  %164 = load i32, ptr %163, align 4
  %165 = icmp ult i32 %160, %164
  br i1 %165, label %166, label %182

166:                                              ; preds = %159
  %167 = load ptr, ptr %4, align 8
  %168 = load ptr, ptr %10, align 8
  %169 = getelementptr inbounds %struct.cmsCurveSegment, ptr %168, i32 0, i32 3
  %170 = load i32, ptr %7, align 4
  %171 = zext i32 %170 to i64
  %172 = getelementptr inbounds [10 x double], ptr %169, i64 0, i64 %171
  %173 = load double, ptr %172, align 8
  %174 = fptrunc double %173 to float
  %175 = call i32 @_cmsWriteFloat32Number(ptr noundef %167, float noundef %174)
  %176 = icmp ne i32 %175, 0
  br i1 %176, label %178, label %177

177:                                              ; preds = %166
  br label %188

178:                                              ; preds = %166
  br label %179

179:                                              ; preds = %178
  %180 = load i32, ptr %7, align 4
  %181 = add i32 %180, 1
  store i32 %181, ptr %7, align 4
  br label %159, !llvm.loop !104

182:                                              ; preds = %159
  br label %183

183:                                              ; preds = %182, %124
  br label %184

184:                                              ; preds = %183
  %185 = load i32, ptr %6, align 4
  %186 = add i32 %185, 1
  store i32 %186, ptr %6, align 4
  br label %62, !llvm.loop !105

187:                                              ; preds = %62
  store i32 1, ptr %3, align 4
  br label %189

188:                                              ; preds = %177, %157, %152, %145, %134, %129, %119, %95, %86, %81, %56, %39, %34, %27, %22
  store i32 0, ptr %3, align 4
  br label %189

189:                                              ; preds = %188, %187
  %190 = load i32, ptr %3, align 4
  ret i32 %190
}

; Function Attrs: nounwind uwtable
define internal i32 @WriteMPECurve(ptr noundef %0, ptr noundef %1, ptr noundef %2, i32 noundef %3, i32 noundef %4) #0 {
  %6 = alloca ptr, align 8
  %7 = alloca ptr, align 8
  %8 = alloca ptr, align 8
  %9 = alloca i32, align 4
  %10 = alloca i32, align 4
  %11 = alloca ptr, align 8
  store ptr %0, ptr %6, align 8
  store ptr %1, ptr %7, align 8
  store ptr %2, ptr %8, align 8
  store i32 %3, ptr %9, align 4
  store i32 %4, ptr %10, align 4
  %12 = load ptr, ptr %8, align 8
  store ptr %12, ptr %11, align 8
  %13 = load ptr, ptr %7, align 8
  %14 = load ptr, ptr %11, align 8
  %15 = getelementptr inbounds %struct._cmsStageToneCurvesData, ptr %14, i32 0, i32 1
  %16 = load ptr, ptr %15, align 8
  %17 = load i32, ptr %9, align 4
  %18 = zext i32 %17 to i64
  %19 = getelementptr inbounds ptr, ptr %16, i64 %18
  %20 = load ptr, ptr %19, align 8
  %21 = call i32 @WriteSegmentedCurve(ptr noundef %13, ptr noundef %20)
  ret i32 %21
}