; Function Attrs: nounwind uwtable
define internal range(i32 0, 2) i32 @WriteMPECurve(ptr nocapture readnone %0, ptr noundef %1, ptr nocapture noundef readonly %2, i32 noundef %3, i32 %4) #0 {
  %6 = getelementptr inbounds i8, ptr %2, i64 8
  %7 = load ptr, ptr %6, align 8
  %8 = zext i32 %3 to i64
  %9 = getelementptr inbounds ptr, ptr %7, i64 %8
  %10 = load ptr, ptr %9, align 8
  %11 = getelementptr inbounds i8, ptr %10, i64 16
  %12 = load ptr, ptr %11, align 8
  %13 = getelementptr inbounds i8, ptr %10, i64 8
  %14 = load i32, ptr %13, align 8
  %15 = tail call i32 @_cmsWriteUInt32Number(ptr noundef %1, i32 noundef 1668641382) #13
  %.not.i = icmp eq i32 %15, 0
  br i1 %.not.i, label %WriteSegmentedCurve.exit, label %16

16:                                               ; preds = %5
  %17 = tail call i32 @_cmsWriteUInt32Number(ptr noundef %1, i32 noundef 0) #13
  %.not49.i = icmp eq i32 %17, 0
  br i1 %.not49.i, label %WriteSegmentedCurve.exit, label %18

18:                                               ; preds = %16
  %19 = trunc i32 %14 to i16
  %20 = tail call i32 @_cmsWriteUInt16Number(ptr noundef %1, i16 noundef zeroext %19) #13
  %.not50.i = icmp eq i32 %20, 0
  br i1 %.not50.i, label %WriteSegmentedCurve.exit, label %21

21:                                               ; preds = %18
  %22 = tail call i32 @_cmsWriteUInt16Number(ptr noundef %1, i16 noundef zeroext 0) #13
  %.not51.i = icmp eq i32 %22, 0
  br i1 %.not51.i, label %WriteSegmentedCurve.exit, label %.preheader68.i

.preheader68.i:                                   ; preds = %21
  %23 = add i32 %14, -1
  %.not93.i = icmp eq i32 %23, 0
  br i1 %.not93.i, label %.preheader66.i, label %.lr.ph.preheader.i

.lr.ph.preheader.i:                               ; preds = %.preheader68.i
  %wide.trip.count.i = zext i32 %23 to i64
  br label %.lr.ph.i

24:                                               ; preds = %.lr.ph.i
  %indvars.iv.next.i = add nuw nsw i64 %indvars.iv.i, 1
  %exitcond.not.i = icmp eq i64 %indvars.iv.next.i, %wide.trip.count.i
  br i1 %exitcond.not.i, label %.preheader66.i, label %.lr.ph.i, !llvm.loop !105

.preheader66.i:                                   ; preds = %24, %.preheader68.i
  %25 = load i32, ptr %13, align 8
  %.not94.i = icmp eq i32 %25, 0
  br i1 %.not94.i, label %WriteSegmentedCurve.exit, label %.lr.ph76.i

.lr.ph.i:                                         ; preds = %24, %.lr.ph.preheader.i
  %indvars.iv.i = phi i64 [ 0, %.lr.ph.preheader.i ], [ %indvars.iv.next.i, %24 ]
  %26 = getelementptr inbounds %struct.cmsCurveSegment, ptr %12, i64 %indvars.iv.i, i32 1
  %27 = load float, ptr %26, align 4
  %28 = tail call i32 @_cmsWriteFloat32Number(ptr noundef %1, float noundef %27) #13
  %.not61.i = icmp eq i32 %28, 0
  br i1 %.not61.i, label %WriteSegmentedCurve.exit, label %24

.lr.ph76.i:                                       ; preds = %.preheader66.i, %.loopexit.i
  %indvars.iv109.i = phi i64 [ %indvars.iv.next110.i, %.loopexit.i ], [ 0, %.preheader66.i ]
  %29 = getelementptr inbounds %struct.cmsCurveSegment, ptr %12, i64 %indvars.iv109.i
  %30 = getelementptr inbounds i8, ptr %29, i64 8
  %31 = load i32, ptr %30, align 8
  %32 = icmp eq i32 %31, 0
  br i1 %32, label %33, label %58

33:                                               ; preds = %.lr.ph76.i
  %34 = tail call i32 @_cmsWriteUInt32Number(ptr noundef %1, i32 noundef 1935764838) #13
  %.not57.i = icmp eq i32 %34, 0
  br i1 %.not57.i, label %WriteSegmentedCurve.exit, label %35

35:                                               ; preds = %33
  %36 = tail call i32 @_cmsWriteUInt32Number(ptr noundef %1, i32 noundef 0) #13
  %.not58.i = icmp eq i32 %36, 0
  br i1 %.not58.i, label %WriteSegmentedCurve.exit, label %37

37:                                               ; preds = %35
  %38 = getelementptr inbounds i8, ptr %29, i64 96
  %39 = load i32, ptr %38, align 8
  %40 = add i32 %39, -1
  %41 = tail call i32 @_cmsWriteUInt32Number(ptr noundef %1, i32 noundef %40) #13
  %.not59.i = icmp eq i32 %41, 0
  br i1 %.not59.i, label %WriteSegmentedCurve.exit, label %.preheader.i

.preheader.i:                                     ; preds = %37
  %42 = load ptr, ptr %11, align 8
  %43 = getelementptr inbounds %struct.cmsCurveSegment, ptr %42, i64 %indvars.iv109.i, i32 4
  %44 = load i32, ptr %43, align 8
  %45 = icmp ugt i32 %44, 1
  br i1 %45, label %.lr.ph74.i, label %.loopexit.i

.lr.ph74.i:                                       ; preds = %.preheader.i
  %46 = getelementptr inbounds i8, ptr %29, i64 104
  br label %53

47:                                               ; preds = %53
  %indvars.iv.next107.i = add nuw nsw i64 %indvars.iv106.i, 1
  %48 = load ptr, ptr %11, align 8
  %49 = getelementptr inbounds %struct.cmsCurveSegment, ptr %48, i64 %indvars.iv109.i, i32 4
  %50 = load i32, ptr %49, align 8
  %51 = zext i32 %50 to i64
  %52 = icmp ult i64 %indvars.iv.next107.i, %51
  br i1 %52, label %53, label %.loopexit.i, !llvm.loop !106

53:                                               ; preds = %47, %.lr.ph74.i
  %indvars.iv106.i = phi i64 [ 1, %.lr.ph74.i ], [ %indvars.iv.next107.i, %47 ]
  %54 = load ptr, ptr %46, align 8
  %55 = getelementptr inbounds float, ptr %54, i64 %indvars.iv106.i
  %56 = load float, ptr %55, align 4
  %57 = tail call i32 @_cmsWriteFloat32Number(ptr noundef %1, float noundef %56) #13
  %.not60.i = icmp eq i32 %57, 0
  br i1 %.not60.i, label %WriteSegmentedCurve.exit, label %47

58:                                               ; preds = %.lr.ph76.i
  %59 = tail call i32 @_cmsWriteUInt32Number(ptr noundef %1, i32 noundef 1885434470) #13
  %.not52.i = icmp eq i32 %59, 0
  br i1 %.not52.i, label %WriteSegmentedCurve.exit, label %60

60:                                               ; preds = %58
  %61 = tail call i32 @_cmsWriteUInt32Number(ptr noundef %1, i32 noundef 0) #13
  %.not53.i = icmp eq i32 %61, 0
  br i1 %.not53.i, label %WriteSegmentedCurve.exit, label %62

62:                                               ; preds = %60
  %63 = load i32, ptr %30, align 8
  %64 = add nsw i32 %63, -6
  %65 = add i32 %63, -9
  %or.cond.i = icmp ult i32 %65, -3
  br i1 %or.cond.i, label %WriteSegmentedCurve.exit, label %66

66:                                               ; preds = %62
  %67 = trunc nuw nsw i32 %64 to i16
  %68 = tail call i32 @_cmsWriteUInt16Number(ptr noundef %1, i16 noundef zeroext %67) #13
  %.not54.i = icmp eq i32 %68, 0
  br i1 %.not54.i, label %WriteSegmentedCurve.exit, label %69

69:                                               ; preds = %66
  %70 = tail call i32 @_cmsWriteUInt16Number(ptr noundef %1, i16 noundef zeroext 0) #13
  %.not55.i = icmp eq i32 %70, 0
  br i1 %.not55.i, label %WriteSegmentedCurve.exit, label %.lr.ph72.i

.lr.ph72.i:                                       ; preds = %69
  %71 = zext nneg i32 %64 to i64
  %72 = getelementptr inbounds [3 x i32], ptr @__const.WriteSegmentedCurve.ParamsByType, i64 0, i64 %71
  %73 = load i32, ptr %72, align 4
  %74 = getelementptr inbounds i8, ptr %29, i64 16
  %umax.i = tail call i32 @llvm.umax.i32(i32 %73, i32 1)
  %wide.trip.count104.i = zext i32 %umax.i to i64
  br label %76

75:                                               ; preds = %76
  %indvars.iv.next102.i = add nuw nsw i64 %indvars.iv101.i, 1
  %exitcond105.not.i = icmp eq i64 %indvars.iv.next102.i, %wide.trip.count104.i
  br i1 %exitcond105.not.i, label %.loopexit.i, label %76, !llvm.loop !107

76:                                               ; preds = %75, %.lr.ph72.i
  %indvars.iv101.i = phi i64 [ 0, %.lr.ph72.i ], [ %indvars.iv.next102.i, %75 ]
  %77 = getelementptr inbounds [10 x double], ptr %74, i64 0, i64 %indvars.iv101.i
  %78 = load double, ptr %77, align 8
  %79 = fptrunc double %78 to float
  %80 = tail call i32 @_cmsWriteFloat32Number(ptr noundef %1, float noundef %79) #13
  %.not56.i = icmp eq i32 %80, 0
  br i1 %.not56.i, label %WriteSegmentedCurve.exit, label %75

.loopexit.i:                                      ; preds = %75, %47, %.preheader.i
  %indvars.iv.next110.i = add nuw nsw i64 %indvars.iv109.i, 1
  %81 = load i32, ptr %13, align 8
  %82 = zext i32 %81 to i64
  %83 = icmp ult i64 %indvars.iv.next110.i, %82
  br i1 %83, label %.lr.ph76.i, label %WriteSegmentedCurve.exit, !llvm.loop !108

WriteSegmentedCurve.exit:                         ; preds = %.lr.ph.i, %33, %35, %37, %58, %60, %62, %66, %69, %.loopexit.i, %76, %53, %5, %16, %18, %21, %.preheader66.i
  %.0.i = phi i32 [ 0, %21 ], [ 0, %18 ], [ 0, %16 ], [ 0, %5 ], [ 1, %.preheader66.i ], [ 0, %53 ], [ 0, %76 ], [ 0, %33 ], [ 0, %35 ], [ 0, %37 ], [ 0, %58 ], [ 0, %60 ], [ 0, %62 ], [ 0, %66 ], [ 0, %69 ], [ 1, %.loopexit.i ], [ 0, %.lr.ph.i ]
  ret i32 %.0.i
}